target datalayout = "e-m:e-p270:32:32-p271:32:32-p272:64:64-i64:64-i128:128-f80:128-n8:16:32:64-S128"
target triple = "x86_64-pc-linux-gnu"

%struct.archive_read = type { %struct.archive, ptr, i32, i64, i64, %struct.archive_read_client, [16 x %struct.archive_read_filter_bidder], ptr, i32, i64, i32, i32, [16 x %struct.archive_format_descriptor], ptr, ptr, ptr, %struct.anon }
%struct.archive = type { i32, i32, ptr, i32, ptr, i32, i32, ptr, %struct.archive_string, ptr, i32, i32, ptr, ptr, i64, i64, i64, i8, i64 }
%struct.archive_string = type { ptr, i64, i64 }
%struct.archive_read_client = type { ptr, ptr, ptr, ptr, ptr, ptr, i32, i32, i64, ptr }
%struct.archive_read_filter_bidder = type { ptr, ptr, ptr }
%struct.archive_format_descriptor = type { ptr, ptr, ptr, ptr, ptr, ptr, ptr, ptr, ptr, ptr, ptr }
%struct.anon = type { ptr, ptr, i32, ptr, ptr }
%struct.zip = type { %struct.archive_string, i64, i64, i64, i64, i32, ptr, %struct.archive_rb_tree, %struct.archive_rb_tree, i64, ptr, i64, i64, i64, i64, ptr, i8, i8, i8, ptr, i64, %struct.z_stream_s, i8, %struct.lzma_stream, i8, %struct.bz_stream, i8, ptr, i8, %struct.IByteIn, i64, %struct.CPpmd8, i8, i8, ptr, ptr, ptr, i32, i32, i8, ptr, ptr, i64, i64, i64, %struct.trad_enc_ctx, i8, %struct.archive_crypto_ctx, i8, ptr, i8, i32, i32, i32, i32, i32, i32, i32, ptr, ptr, ptr }
%struct.archive_rb_tree = type { ptr, ptr }
%struct.z_stream_s = type { ptr, i32, i64, ptr, i32, i64, ptr, ptr, ptr, ptr, ptr, i32, i64, i64 }
%struct.lzma_stream = type { ptr, i64, i64, ptr, i64, i64, ptr, ptr, ptr, ptr, ptr, ptr, i64, i64, i64, i64, i32, i32 }
%struct.bz_stream = type { ptr, i32, i32, i32, ptr, i32, i32, i32, ptr, ptr, ptr, ptr }
%struct.IByteIn = type { ptr, ptr }
%struct.CPpmd8 = type { ptr, ptr, ptr, i32, i32, i32, i32, i32, i32, i32, i32, ptr, ptr, ptr, ptr, ptr, i32, i32, i32, i32, i32, %union.anon, [38 x i8], [128 x i8], [38 x i32], [38 x i32], [256 x i8], [260 x i8], %struct.CPpmd_See, [24 x [32 x %struct.CPpmd_See]], [25 x [64 x i16]] }
%union.anon = type { ptr }
%struct.CPpmd_See = type { i16, i8, i8 }
%struct.trad_enc_ctx = type { [3 x i32] }
%struct.archive_crypto_ctx = type { ptr, ptr, [32 x i8], i32, [16 x i8], [16 x i8], i32 }

@.str.83 = private unnamed_addr constant [29 x i8] c"No memory for ZIP decryption\00", align 1

; Function Attrs: nounwind uwtable
define internal i32 @zip_alloc_decryption_buffer(ptr noundef %0) #0 {
  %2 = alloca i32, align 4
  %3 = alloca ptr, align 8
  %4 = alloca ptr, align 8
  %5 = alloca i64, align 8
  %6 = alloca i32, align 4
  store ptr %0, ptr %3, align 8, !tbaa !11
  call void @llvm.lifetime.start.p0(i64 8, ptr %4) #11
  %7 = load ptr, ptr %3, align 8, !tbaa !11
  %8 = getelementptr inbounds nuw %struct.archive_read, ptr %7, i32 0, i32 13
  %9 = load ptr, ptr %8, align 8, !tbaa !47
  %10 = getelementptr inbounds nuw %struct.archive_format_descriptor, ptr %9, i32 0, i32 0
  %11 = load ptr, ptr %10, align 8, !tbaa !60
  store ptr %11, ptr %4, align 8, !tbaa !13
  call void @llvm.lifetime.start.p0(i64 8, ptr %5) #11
  store i64 262144, ptr %5, align 8, !tbaa !43
  %12 = load ptr, ptr %4, align 8, !tbaa !13
  %13 = getelementptr inbounds nuw %struct.zip, ptr %12, i32 0, i32 40
  %14 = load ptr, ptr %13, align 8, !tbaa !114
  %15 = icmp eq ptr %14, null
  br i1 %15, label %16, label %32

16:                                               ; preds = %1
  %17 = load i64, ptr %5, align 8, !tbaa !43
  %18 = load ptr, ptr %4, align 8, !tbaa !13
  %19 = getelementptr inbounds nuw %struct.zip, ptr %18, i32 0, i32 42
  store i64 %17, ptr %19, align 8, !tbaa !160
  %20 = load i64, ptr %5, align 8, !tbaa !43
  %21 = call noalias ptr @malloc(i64 noundef %20) #14
  %22 = load ptr, ptr %4, align 8, !tbaa !13
  %23 = getelementptr inbounds nuw %struct.zip, ptr %22, i32 0, i32 40
  store ptr %21, ptr %23, align 8, !tbaa !114
  %24 = load ptr, ptr %4, align 8, !tbaa !13
  %25 = getelementptr inbounds nuw %struct.zip, ptr %24, i32 0, i32 40
  %26 = load ptr, ptr %25, align 8, !tbaa !114
  %27 = icmp eq ptr %26, null
  br i1 %27, label %28, label %31

28:                                               ; preds = %16
  %29 = load ptr, ptr %3, align 8, !tbaa !11
  %30 = getelementptr inbounds nuw %struct.archive_read, ptr %29, i32 0, i32 0
  call void (ptr, i32, ptr, ...) @archive_set_error(ptr noundef %30, i32 noundef 12, ptr noundef @.str.83)
  store i32 -30, ptr %2, align 4
  store i32 1, ptr %6, align 4
  br label %38

31:                                               ; preds = %16
  br label %32

32:                                               ; preds = %31, %1
  %33 = load ptr, ptr %4, align 8, !tbaa !13
  %34 = getelementptr inbounds nuw %struct.zip, ptr %33, i32 0, i32 40
  %35 = load ptr, ptr %34, align 8, !tbaa !114
  %36 = load ptr, ptr %4, align 8, !tbaa !13
  %37 = getelementptr inbounds nuw %struct.zip, ptr %36, i32 0, i32 41
  store ptr %35, ptr %37, align 8, !tbaa !161
  store i32 0, ptr %2, align 4
  store i32 1, ptr %6, align 4
  br label %38

38:                                               ; preds = %32, %28
  call void @llvm.lifetime.end.p0(i64 8, ptr %5) #11
  call void @llvm.lifetime.end.p0(i64 8, ptr %4) #11
  %39 = load i32, ptr %2, align 4
  ret i32 %39
}