; Function Attrs: nounwind uwtable
define internal fastcc range(i32 -30, 1) i32 @zip_alloc_decryption_buffer(ptr noundef %0) unnamed_addr #0 {
  %2 = getelementptr inbounds nuw i8, ptr %0, i64 2072
  %3 = load ptr, ptr %2, align 8, !tbaa !37
  %4 = load ptr, ptr %3, align 8, !tbaa !50
  %5 = getelementptr inbounds nuw i8, ptr %4, i64 8016
  %6 = load ptr, ptr %5, align 8, !tbaa !107
  %7 = icmp eq ptr %6, null
  br i1 %7, label %8, label %13

8:                                                ; preds = %1
  %9 = getelementptr inbounds nuw i8, ptr %4, i64 8032
  store i64 262144, ptr %9, align 8, !tbaa !158
  %10 = tail call noalias dereferenceable_or_null(262144) ptr @malloc(i64 noundef 262144) #24
  store ptr %10, ptr %5, align 8, !tbaa !107
  %11 = icmp eq ptr %10, null
  br i1 %11, label %12, label %13

12:                                               ; preds = %8
  tail call void (ptr, i32, ptr, ...) @archive_set_error(ptr noundef nonnull %0, i32 noundef 12, ptr noundef nonnull @.str.83) #21
  br label %16

13:                                               ; preds = %8, %1
  %14 = phi ptr [ %10, %8 ], [ %6, %1 ]
  %15 = getelementptr inbounds nuw i8, ptr %4, i64 8024
  store ptr %14, ptr %15, align 8, !tbaa !159
  br label %16

16:                                               ; preds = %13, %12
  %.0 = phi i32 [ -30, %12 ], [ 0, %13 ]
  ret i32 %.0
}